target datalayout = "e-m:e-p270:32:32-p271:32:32-p272:64:64-i64:64-i128:128-f80:128-n8:16:32:64-S128"
target triple = "x86_64-pc-linux-gnu"

%struct.AVChannelLayout = type { i32, i32, %union.anon.0, ptr }
%union.anon.0 = type { i64 }
%struct.AVCodecContext = type { ptr, i32, i32, ptr, i32, i32, ptr, ptr, ptr, i64, i32, i32, ptr, i32, %struct.AVRational, %struct.AVRational, %struct.AVRational, i32, i32, i32, i32, i32, %struct.AVRational, i32, i32, i32, i32, i32, i32, i32, i32, i32, i32, i32, ptr, ptr, i32, float, float, float, float, float, float, float, float, float, i32, i32, i32, i32, i32, i32, i32, i32, i32, i32, i32, i32, ptr, ptr, ptr, i32, i32, i32, i32, i32, i32, i32, i32, i32, i32, %struct.AVChannelLayout, i32, i32, i32, i32, i32, i32, i32, i32, ptr, i32, i32, i32, float, float, i32, i32, i32, i32, i32, ptr, i64, i64, float, float, i32, i32, ptr, ptr, i32, i32, i32, i32, i32, ptr, ptr, ptr, ptr, i32, i32, [8 x i64], i32, i32, i32, i32, i32, i32, i32, ptr, ptr, i32, i32, i32, i32, i32, i32, i32, i32, i32, i32, ptr, ptr, i32, i32, ptr, ptr, ptr, ptr, i32, i32, i64, i32, i32, i64, ptr, i64, ptr, i32, ptr, i32 }
%struct.AVRational = type { i32, i32 }
%struct.DssSpContext = type { ptr, [294 x i32], [187 x i32], %struct.DssSpFrame, [4 x [72 x i32]], [15 x i32], [15 x i32], [14 x i32], [15 x i32], [72 x i32], i32, [15 x i32], i32, [8 x i8], [106 x i8] }
%struct.DssSpFrame = type { [14 x i16], [4 x i16], [4 x i16], [4 x %struct.DssSpSubframe] }
%struct.DssSpSubframe = type { i16, i32, [7 x i16], [7 x i16] }

; Function Attrs: cold nounwind optsize uwtable
define internal i32 @dss_sp_decode_init(ptr noundef %0) #0 {
  %2 = alloca ptr, align 8
  %3 = alloca ptr, align 8
  %4 = alloca %struct.AVChannelLayout, align 8
  store ptr %0, ptr %2, align 8, !tbaa !4
  call void @llvm.lifetime.start.p0(i64 8, ptr %3) #7
  %5 = load ptr, ptr %2, align 8, !tbaa !4
  %6 = getelementptr inbounds nuw %struct.AVCodecContext, ptr %5, i32 0, i32 6
  %7 = load ptr, ptr %6, align 8, !tbaa !9
  store ptr %7, ptr %3, align 8, !tbaa !29
  %8 = load ptr, ptr %2, align 8, !tbaa !4
  %9 = getelementptr inbounds nuw %struct.AVCodecContext, ptr %8, i32 0, i32 70
  store i32 1, ptr %9, align 4, !tbaa !31
  %10 = load ptr, ptr %2, align 8, !tbaa !4
  %11 = getelementptr inbounds nuw %struct.AVCodecContext, ptr %10, i32 0, i32 69
  store i32 11025, ptr %11, align 8, !tbaa !32
  %12 = load ptr, ptr %2, align 8, !tbaa !4
  %13 = getelementptr inbounds nuw %struct.AVCodecContext, ptr %12, i32 0, i32 71
  call void @av_channel_layout_uninit(ptr noundef %13)
  %14 = load ptr, ptr %2, align 8, !tbaa !4
  %15 = getelementptr inbounds nuw %struct.AVCodecContext, ptr %14, i32 0, i32 71
  %16 = getelementptr inbounds nuw %struct.AVChannelLayout, ptr %4, i32 0, i32 0
  store i32 1, ptr %16, align 8, !tbaa !33
  %17 = getelementptr inbounds nuw %struct.AVChannelLayout, ptr %4, i32 0, i32 1
  store i32 1, ptr %17, align 4, !tbaa !34
  %18 = getelementptr inbounds nuw %struct.AVChannelLayout, ptr %4, i32 0, i32 2
  store i64 4, ptr %18, align 8, !tbaa !35
  %19 = getelementptr inbounds nuw %struct.AVChannelLayout, ptr %4, i32 0, i32 3
  store ptr null, ptr %19, align 8, !tbaa !36
  call void @llvm.memcpy.p0.p0.i64(ptr align 8 %15, ptr align 8 %4, i64 24, i1 false), !tbaa.struct !37
  %20 = load ptr, ptr %3, align 8, !tbaa !29
  %21 = getelementptr inbounds nuw %struct.DssSpContext, ptr %20, i32 0, i32 12
  store i32 1, ptr %21, align 4, !tbaa !40
  %22 = load ptr, ptr %2, align 8, !tbaa !4
  %23 = load ptr, ptr %3, align 8, !tbaa !29
  %24 = getelementptr inbounds nuw %struct.DssSpContext, ptr %23, i32 0, i32 0
  store ptr %22, ptr %24, align 16, !tbaa !43
  call void @llvm.lifetime.end.p0(i64 8, ptr %3) #7
  ret i32 0
}